; Function Attrs: nounwind uwtable
define void @Wln_RetInsertOneFanout(ptr noundef captures(none) %0, i32 noundef %1, i32 noundef %2) local_unnamed_addr #4 {
  %4 = getelementptr i8, ptr %0, i64 32
  %5 = sext i32 %1 to i64
  %6 = load ptr, ptr %0, align 8, !tbaa !3
  %7 = getelementptr i8, ptr %6, i64 256
  %.val2326 = load ptr, ptr %7, align 8, !tbaa !12
  %8 = getelementptr inbounds i32, ptr %.val2326, i64 %5
  %9 = load i32, ptr %8, align 4, !tbaa !13
  %10 = icmp sgt i32 %9, 0
  br i1 %10, label %.lr.ph, label %.critedge

.lr.ph:                                           ; preds = %3
  %11 = getelementptr i8, ptr %0, i64 16
  %12 = getelementptr i8, ptr %0, i64 48
  %13 = getelementptr inbounds nuw i8, ptr %0, i64 40
  %14 = getelementptr i8, ptr %0, i64 44
  br label %15

15:                                               ; preds = %.lr.ph, %38
  %16 = phi ptr [ %6, %.lr.ph ], [ %39, %38 ]
  %indvars.iv = phi i64 [ 0, %.lr.ph ], [ %indvars.iv.next, %38 ]
  %.val25 = load ptr, ptr %4, align 8, !tbaa !12
  %17 = getelementptr inbounds i32, ptr %.val25, i64 %5
  %18 = load i32, ptr %17, align 4, !tbaa !13
  %19 = sext i32 %18 to i64
  %20 = getelementptr inbounds i32, ptr %.val25, i64 %19
  %21 = shl nuw nsw i64 %indvars.iv, 1
  %22 = or disjoint i64 %21, 1
  %23 = getelementptr inbounds nuw i32, ptr %20, i64 %22
  %24 = load i32, ptr %23, align 4, !tbaa !13
  %.val = load ptr, ptr %11, align 8, !tbaa !12
  %25 = sext i32 %24 to i64
  %26 = getelementptr inbounds i32, ptr %.val, i64 %25
  %.not = icmp eq ptr %.val, null
  br i1 %.not, label %.critedge, label %27

27:                                               ; preds = %15
  %28 = getelementptr inbounds nuw i32, ptr %20, i64 %21
  %29 = load i32, ptr %28, align 4, !tbaa !13
  %.not20 = icmp eq i32 %29, 0
  br i1 %.not20, label %38, label %30

30:                                               ; preds = %27
  %31 = load i32, ptr %26, align 4, !tbaa !13
  %.not21 = icmp eq i32 %31, 0
  br i1 %.not21, label %Wln_RetHeadToTail.exit, label %32

32:                                               ; preds = %30
  %.val.i = load ptr, ptr %12, align 8, !tbaa !12
  br label %tailrecurse.i

tailrecurse.i:                                    ; preds = %tailrecurse.i, %32
  %33 = phi i32 [ %31, %32 ], [ %36, %tailrecurse.i ]
  %.tr7.i = phi ptr [ %26, %32 ], [ %35, %tailrecurse.i ]
  %34 = sext i32 %33 to i64
  %35 = getelementptr inbounds i32, ptr %.val.i, i64 %34
  %36 = load i32, ptr %35, align 4, !tbaa !13
  %37 = icmp eq i32 %36, 0
  br i1 %37, label %Wln_RetHeadToTail.exit, label %tailrecurse.i

Wln_RetHeadToTail.exit:                           ; preds = %tailrecurse.i, %30
  %.0 = phi ptr [ %26, %30 ], [ %.tr7.i, %tailrecurse.i ]
  %.val22 = load i32, ptr %14, align 4, !tbaa !26
  store i32 %.val22, ptr %.0, align 4, !tbaa !13
  tail call fastcc void @Vec_IntPushTwo(ptr noundef nonnull %13, i32 noundef 0, i32 noundef %2)
  %.pre = load ptr, ptr %0, align 8, !tbaa !3
  br label %38

38:                                               ; preds = %Wln_RetHeadToTail.exit, %27
  %39 = phi ptr [ %.pre, %Wln_RetHeadToTail.exit ], [ %16, %27 ]
  %indvars.iv.next = add nuw nsw i64 %indvars.iv, 1
  %40 = getelementptr i8, ptr %39, i64 256
  %.val23 = load ptr, ptr %40, align 8, !tbaa !12
  %41 = getelementptr inbounds i32, ptr %.val23, i64 %5
  %42 = load i32, ptr %41, align 4, !tbaa !13
  %43 = sext i32 %42 to i64
  %44 = icmp slt i64 %indvars.iv.next, %43
  br i1 %44, label %15, label %.critedge, !llvm.loop !97

.critedge:                                        ; preds = %15, %38, %3
  ret void
}